(dp0
S'ENSG00000164120.13'
p1
(lp2
S'HPGD'
p3
aS'chr4'
p4
a(dp5
S'start'
p6
S'174490177'
p7
sS'end'
p8
S'174523154'
p9
sa(dp10
S'ENST00000542498.5'
p11
(lp12
S'-'
p13
a(dp14
g6
S'174490177'
p15
sg8
S'174522898'
p16
sa(dp17
I1
(lp18
S''
p19
a(dp20
S'abs_end'
p21
S'174522451'
p22
sS'abs_start'
p23
S'174522359'
p24
sa(dp25
asI2
(lp26
g19
a(dp27
g21
S'174522067'
p28
sg23
S'174521944'
p29
sa(dp30
asI3
(lp31
g19
a(dp32
g21
S'174518077'
p33
sg23
S'174517971'
p34
sa(dp35
asI4
(lp36
g19
a(dp37
g21
S'174508792'
p38
sg23
S'174508696'
p39
sa(dp40
asI5
(lp41
g19
a(dp42
g21
S'174492094'
p43
sg23
S'174492087'
p44
sa(dp45
asasS'ENST00000541923.5'
p46
(lp47
g13
a(dp48
g6
S'174490177'
p49
sg8
S'174522898'
p50
sa(dp51
I3
(lp52
g19
a(dp53
g21
S'174508753'
p54
sg23
S'174508696'
p55
sa(dp56
asI4
(lp57
g19
a(dp58
g21
S'174495624'
p59
sg23
S'174495548'
p60
sa(dp61
asI5
(lp62
g19
a(dp63
g21
S'174493314'
p64
sg23
S'174493151'
p65
sa(dp66
asI6
(lp67
g19
a(dp68
g21
S'174492094'
p69
sg23
S'174491959'
p70
sa(dp71
asasS'ENST00000296522.10'
p72
(lp73
g13
a(dp74
g6
S'174490177'
p75
sg8
S'174522898'
p76
sa(dp77
I1
(lp78
g19
a(dp79
g21
S'174522451'
p80
sg23
S'174522359'
p81
sa(dp82
asI2
(lp83
g19
a(dp84
g21
S'174522067'
p85
sg23
S'174521944'
p86
sa(dp87
asI3
(lp88
g19
a(dp89
g21
S'174518077'
p90
sg23
S'174517971'
p91
sa(dp92
asI4
(lp93
g19
a(dp94
g21
S'174508792'
p95
sg23
S'174508696'
p96
sa(dp97
asI5
(lp98
g19
a(dp99
g21
S'174495624'
p100
sg23
S'174495548'
p101
sa(dp102
asI6
(lp103
g19
a(dp104
g21
S'174493314'
p105
sg23
S'174493151'
p106
sa(dp107
asI7
(lp108
g19
a(dp109
g21
S'174492094'
p110
sg23
S'174491959'
p111
sa(dp112
asasas.